CCS PCM C Compiler, Version 5.049, 5967               15-Apr-26 12:07

               Filename:   C:\Users\Vicenzo\Desktop\Escola\info Industrial\pic\14-04\main.lst

               ROM used:   547 words (7%)
                           Largest free fragment is 2048
               RAM used:   10 (3%) at main() level
                           22 (6%) worst case
               Stack used: 1 locations
               Stack size: 8

*
0000:  MOVLW  01
0001:  MOVWF  0A
0002:  GOTO   1F1
0003:  NOP
.................... #include <16F877A.h> 
.................... //////////// Standard Header file for the PIC16F877A device //////////////// 
.................... /////////////////////////////////////////////////////////////////////////// 
.................... ////        (C) Copyright 1996, 2014 Custom Computer Services          //// 
.................... //// This source code may only be used by licensed users of the CCS C  //// 
.................... //// compiler.  This source code may only be distributed to other      //// 
.................... //// licensed users of the CCS C compiler.  No other use, reproduction //// 
.................... //// or distribution is permitted without written permission.          //// 
.................... //// Derivative programs created using this software in object code    //// 
.................... //// form are not restricted in any way.                               //// 
.................... /////////////////////////////////////////////////////////////////////////// 
.................... #device PIC16F877A 
0004:  MOVF   2F,W
0005:  CLRF   78
0006:  SUBWF  2E,W
0007:  BTFSC  03.0
0008:  GOTO   00C
0009:  MOVF   2E,W
000A:  MOVWF  77
000B:  GOTO   018
000C:  CLRF   77
000D:  MOVLW  08
000E:  MOVWF  30
000F:  RLF    2E,F
0010:  RLF    77,F
0011:  MOVF   2F,W
0012:  SUBWF  77,W
0013:  BTFSC  03.0
0014:  MOVWF  77
0015:  RLF    78,F
0016:  DECFSZ 30,F
0017:  GOTO   00F
0018:  RETURN
....................  
.................... #list 
....................  
....................  
.................... #device adc=10 
.................... #use delay(crystal=4MHz) 
*
0108:  MOVLW  2E
0109:  MOVWF  04
010A:  BCF    03.7
010B:  MOVF   00,W
010C:  BTFSC  03.2
010D:  GOTO   11C
010E:  MOVLW  01
010F:  MOVWF  78
0110:  CLRF   77
0111:  DECFSZ 77,F
0112:  GOTO   111
0113:  DECFSZ 78,F
0114:  GOTO   110
0115:  MOVLW  4A
0116:  MOVWF  77
0117:  DECFSZ 77,F
0118:  GOTO   117
0119:  GOTO   11A
011A:  DECFSZ 00,F
011B:  GOTO   10E
011C:  RETURN
....................  
.................... #FUSES NOPUT, NOBROWNOUT, NOLVP, HS, NOWDT  
....................  
.................... #define LEDA    PIN_B1 
.................... #define LEDB    PIN_B0 
.................... #define LEDC    PIN_B6 
.................... #define LEDD    PIN_B5 
.................... #define LEDE    PIN_B4 
.................... #define LEDF    PIN_B3 
.................... #define LEDG    PIN_B2 
.................... #define LEDPT   PIN_B7 
....................  
.................... #define ACT1    PIN_C7 
.................... #define ACT2    PIN_C6     
.................... #define ACT3    PIN_C5 
.................... #define ACT4    PIN_C4 
.................... #define ACT5    PIN_D2 
.................... #define ACT6    PIN_D3 
....................  
.................... void clearDisplay(){ 
....................     output_high(LEDA); 
011D:  BSF    03.5
011E:  BCF    06.1
011F:  BCF    03.5
0120:  BSF    06.1
....................     output_high(LEDB); 
0121:  BSF    03.5
0122:  BCF    06.0
0123:  BCF    03.5
0124:  BSF    06.0
....................     output_high(LEDC); 
0125:  BSF    03.5
0126:  BCF    06.6
0127:  BCF    03.5
0128:  BSF    06.6
....................     output_high(LEDD); 
0129:  BSF    03.5
012A:  BCF    06.5
012B:  BCF    03.5
012C:  BSF    06.5
....................     output_high(LEDE); 
012D:  BSF    03.5
012E:  BCF    06.4
012F:  BCF    03.5
0130:  BSF    06.4
....................     output_high(LEDF); 
0131:  BSF    03.5
0132:  BCF    06.3
0133:  BCF    03.5
0134:  BSF    06.3
....................     output_high(LEDG); 
0135:  BSF    03.5
0136:  BCF    06.2
0137:  BCF    03.5
0138:  BSF    06.2
0139:  RETURN
.................... } 
....................  
.................... void display1() { 
....................     output_low(LEDB); 
*
0052:  BSF    03.5
0053:  BCF    06.0
0054:  BCF    03.5
0055:  BCF    06.0
....................     output_low(LEDC); 
0056:  BSF    03.5
0057:  BCF    06.6
0058:  BCF    03.5
0059:  BCF    06.6
.................... } 
.................... void display2() { 
....................     output_low(LEDD); 
*
005B:  BSF    03.5
005C:  BCF    06.5
005D:  BCF    03.5
005E:  BCF    06.5
....................     output_low(LEDE); 
005F:  BSF    03.5
0060:  BCF    06.4
0061:  BCF    03.5
0062:  BCF    06.4
....................     output_low(LEDG); 
0063:  BSF    03.5
0064:  BCF    06.2
0065:  BCF    03.5
0066:  BCF    06.2
....................     output_low(LEDB); 
0067:  BSF    03.5
0068:  BCF    06.0
0069:  BCF    03.5
006A:  BCF    06.0
....................     output_low(LEDA); 
006B:  BSF    03.5
006C:  BCF    06.1
006D:  BCF    03.5
006E:  BCF    06.1
.................... } 
.................... void display3() { 
....................     output_low(LEDA); 
*
0070:  BSF    03.5
0071:  BCF    06.1
0072:  BCF    03.5
0073:  BCF    06.1
....................     output_low(LEDB); 
0074:  BSF    03.5
0075:  BCF    06.0
0076:  BCF    03.5
0077:  BCF    06.0
....................     output_low(LEDG); 
0078:  BSF    03.5
0079:  BCF    06.2
007A:  BCF    03.5
007B:  BCF    06.2
....................     output_low(LEDC); 
007C:  BSF    03.5
007D:  BCF    06.6
007E:  BCF    03.5
007F:  BCF    06.6
....................     output_low(LEDD); 
0080:  BSF    03.5
0081:  BCF    06.5
0082:  BCF    03.5
0083:  BCF    06.5
.................... } 
.................... void display4() { 
....................     output_low(LEDC); 
*
0085:  BSF    03.5
0086:  BCF    06.6
0087:  BCF    03.5
0088:  BCF    06.6
....................     output_low(LEDG); 
0089:  BSF    03.5
008A:  BCF    06.2
008B:  BCF    03.5
008C:  BCF    06.2
....................     output_low(LEDF); 
008D:  BSF    03.5
008E:  BCF    06.3
008F:  BCF    03.5
0090:  BCF    06.3
....................     output_low(LEDB); 
0091:  BSF    03.5
0092:  BCF    06.0
0093:  BCF    03.5
0094:  BCF    06.0
.................... } 
.................... void display5() { 
....................     output_low(LEDA); 
*
0096:  BSF    03.5
0097:  BCF    06.1
0098:  BCF    03.5
0099:  BCF    06.1
....................     output_low(LEDF); 
009A:  BSF    03.5
009B:  BCF    06.3
009C:  BCF    03.5
009D:  BCF    06.3
....................     output_low(LEDG); 
009E:  BSF    03.5
009F:  BCF    06.2
00A0:  BCF    03.5
00A1:  BCF    06.2
....................     output_low(LEDC); 
00A2:  BSF    03.5
00A3:  BCF    06.6
00A4:  BCF    03.5
00A5:  BCF    06.6
....................     output_low(LEDD); 
00A6:  BSF    03.5
00A7:  BCF    06.5
00A8:  BCF    03.5
00A9:  BCF    06.5
.................... } 
.................... void display6() { 
....................     output_low(LEDA); 
*
00AB:  BSF    03.5
00AC:  BCF    06.1
00AD:  BCF    03.5
00AE:  BCF    06.1
....................     output_low(LEDF); 
00AF:  BSF    03.5
00B0:  BCF    06.3
00B1:  BCF    03.5
00B2:  BCF    06.3
....................     output_low(LEDG); 
00B3:  BSF    03.5
00B4:  BCF    06.2
00B5:  BCF    03.5
00B6:  BCF    06.2
....................     output_low(LEDC); 
00B7:  BSF    03.5
00B8:  BCF    06.6
00B9:  BCF    03.5
00BA:  BCF    06.6
....................     output_low(LEDD); 
00BB:  BSF    03.5
00BC:  BCF    06.5
00BD:  BCF    03.5
00BE:  BCF    06.5
....................     output_low(LEDE); 
00BF:  BSF    03.5
00C0:  BCF    06.4
00C1:  BCF    03.5
00C2:  BCF    06.4
....................  
.................... } 
.................... void display7() { 
....................     output_low(LEDA); 
*
00C4:  BSF    03.5
00C5:  BCF    06.1
00C6:  BCF    03.5
00C7:  BCF    06.1
....................     output_low(LEDB); 
00C8:  BSF    03.5
00C9:  BCF    06.0
00CA:  BCF    03.5
00CB:  BCF    06.0
....................     output_low(LEDC); 
00CC:  BSF    03.5
00CD:  BCF    06.6
00CE:  BCF    03.5
00CF:  BCF    06.6
.................... } 
.................... void display8() { 
....................     output_low(LEDA); 
*
00D1:  BSF    03.5
00D2:  BCF    06.1
00D3:  BCF    03.5
00D4:  BCF    06.1
....................     output_low(LEDF); 
00D5:  BSF    03.5
00D6:  BCF    06.3
00D7:  BCF    03.5
00D8:  BCF    06.3
....................     output_low(LEDG); 
00D9:  BSF    03.5
00DA:  BCF    06.2
00DB:  BCF    03.5
00DC:  BCF    06.2
....................     output_low(LEDC); 
00DD:  BSF    03.5
00DE:  BCF    06.6
00DF:  BCF    03.5
00E0:  BCF    06.6
....................     output_low(LEDD); 
00E1:  BSF    03.5
00E2:  BCF    06.5
00E3:  BCF    03.5
00E4:  BCF    06.5
....................     output_low(LEDE); 
00E5:  BSF    03.5
00E6:  BCF    06.4
00E7:  BCF    03.5
00E8:  BCF    06.4
....................     output_low(LEDB); 
00E9:  BSF    03.5
00EA:  BCF    06.0
00EB:  BCF    03.5
00EC:  BCF    06.0
.................... } 
.................... void display9() { 
....................     output_low(LEDA); 
*
00EE:  BSF    03.5
00EF:  BCF    06.1
00F0:  BCF    03.5
00F1:  BCF    06.1
....................     output_low(LEDF); 
00F2:  BSF    03.5
00F3:  BCF    06.3
00F4:  BCF    03.5
00F5:  BCF    06.3
....................     output_low(LEDG); 
00F6:  BSF    03.5
00F7:  BCF    06.2
00F8:  BCF    03.5
00F9:  BCF    06.2
....................     output_low(LEDC); 
00FA:  BSF    03.5
00FB:  BCF    06.6
00FC:  BCF    03.5
00FD:  BCF    06.6
....................     output_low(LEDD); 
00FE:  BSF    03.5
00FF:  BCF    06.5
0100:  BCF    03.5
0101:  BCF    06.5
....................     output_low(LEDB); 
0102:  BSF    03.5
0103:  BCF    06.0
0104:  BCF    03.5
0105:  BCF    06.0
.................... } 
.................... void display0() { 
....................     output_low(LEDF); 
*
0039:  BSF    03.5
003A:  BCF    06.3
003B:  BCF    03.5
003C:  BCF    06.3
....................     output_low(LEDE); 
003D:  BSF    03.5
003E:  BCF    06.4
003F:  BCF    03.5
0040:  BCF    06.4
....................     output_low(LEDD); 
0041:  BSF    03.5
0042:  BCF    06.5
0043:  BCF    03.5
0044:  BCF    06.5
....................     output_low(LEDC); 
0045:  BSF    03.5
0046:  BCF    06.6
0047:  BCF    03.5
0048:  BCF    06.6
....................     output_low(LEDB); 
0049:  BSF    03.5
004A:  BCF    06.0
004B:  BCF    03.5
004C:  BCF    06.0
....................     output_low(LEDA); 
004D:  BSF    03.5
004E:  BCF    06.1
004F:  BCF    03.5
0050:  BCF    06.1
.................... } 
....................  
.................... void choose(int num) { 
....................     switch (num) 
*
0019:  MOVF   2E,W
001A:  XORLW  00
001B:  BTFSC  03.2
001C:  GOTO   039
001D:  XORLW  01
001E:  BTFSC  03.2
001F:  GOTO   052
0020:  XORLW  03
0021:  BTFSC  03.2
0022:  GOTO   05B
0023:  XORLW  01
0024:  BTFSC  03.2
0025:  GOTO   070
0026:  XORLW  07
0027:  BTFSC  03.2
0028:  GOTO   085
0029:  XORLW  01
002A:  BTFSC  03.2
002B:  GOTO   096
002C:  XORLW  03
002D:  BTFSC  03.2
002E:  GOTO   0AB
002F:  XORLW  01
0030:  BTFSC  03.2
0031:  GOTO   0C4
0032:  XORLW  0F
0033:  BTFSC  03.2
0034:  GOTO   0D1
0035:  XORLW  01
0036:  BTFSC  03.2
0037:  GOTO   0EE
0038:  GOTO   107
....................     { 
....................     case 0: display0(); break; 
*
0051:  GOTO   107
....................     case 1: display1(); break; 
*
005A:  GOTO   107
....................     case 2: display2(); break; 
*
006F:  GOTO   107
....................     case 3: display3(); break; 
*
0084:  GOTO   107
....................     case 4: display4(); break; 
*
0095:  GOTO   107
....................     case 5: display5(); break; 
*
00AA:  GOTO   107
....................     case 6: display6(); break; 
*
00C3:  GOTO   107
....................     case 7: display7(); break; 
*
00D0:  GOTO   107
....................     case 8: display8(); break; 
*
00ED:  GOTO   107
....................     case 9: display9(); break; 
*
0106:  GOTO   107
....................     default: break; 
....................     } 
0107:  RETURN
.................... } 
....................  
.................... void displayRefresh(int h, int m, int s) { 
....................     output_high(ACT1); 
*
013A:  BCF    20.7
013B:  MOVF   20,W
013C:  BSF    03.5
013D:  MOVWF  07
013E:  BCF    03.5
013F:  BSF    07.7
....................     output_high(ACT2); 
0140:  BCF    20.6
0141:  MOVF   20,W
0142:  BSF    03.5
0143:  MOVWF  07
0144:  BCF    03.5
0145:  BSF    07.6
....................     output_high(ACT3); 
0146:  BCF    20.5
0147:  MOVF   20,W
0148:  BSF    03.5
0149:  MOVWF  07
014A:  BCF    03.5
014B:  BSF    07.5
....................     output_high(ACT4); 
014C:  BCF    20.4
014D:  MOVF   20,W
014E:  BSF    03.5
014F:  MOVWF  07
0150:  BCF    03.5
0151:  BSF    07.4
....................     output_high(ACT5); 
0152:  BSF    03.5
0153:  BCF    08.2
0154:  BCF    03.5
0155:  BSF    08.2
....................     output_high(ACT6); 
0156:  BSF    03.5
0157:  BCF    08.3
0158:  BCF    03.5
0159:  BSF    08.3
....................  
....................     int horaDez = h / 10; 
....................     int horaUnd = h % 10; 
....................     int minDez = m / 10; 
....................     int minUnd = m % 10; 
....................     int segDez = s / 10; 
....................     int segUnd = s % 10; 
015A:  MOVF   25,W
015B:  MOVWF  2E
015C:  MOVLW  0A
015D:  MOVWF  2F
015E:  CALL   004
015F:  MOVF   78,W
0160:  MOVWF  28
0161:  MOVF   25,W
0162:  MOVWF  2E
0163:  MOVLW  0A
0164:  MOVWF  2F
0165:  CALL   004
0166:  MOVF   77,W
0167:  MOVWF  29
0168:  MOVF   26,W
0169:  MOVWF  2E
016A:  MOVLW  0A
016B:  MOVWF  2F
016C:  CALL   004
016D:  MOVF   78,W
016E:  MOVWF  2A
016F:  MOVF   26,W
0170:  MOVWF  2E
0171:  MOVLW  0A
0172:  MOVWF  2F
0173:  CALL   004
0174:  MOVF   77,W
0175:  MOVWF  2B
0176:  MOVF   27,W
0177:  MOVWF  2E
0178:  MOVLW  0A
0179:  MOVWF  2F
017A:  CALL   004
017B:  MOVF   78,W
017C:  MOVWF  2C
017D:  MOVF   27,W
017E:  MOVWF  2E
017F:  MOVLW  0A
0180:  MOVWF  2F
0181:  CALL   004
0182:  MOVF   77,W
0183:  MOVWF  2D
....................      
....................     output_low(ACT1); // horaDez 
0184:  BCF    20.7
0185:  MOVF   20,W
0186:  BSF    03.5
0187:  MOVWF  07
0188:  BCF    03.5
0189:  BCF    07.7
....................     choose(horaDez); 
018A:  MOVF   28,W
018B:  MOVWF  2E
018C:  CALL   019
....................     delay_ms(10); 
018D:  MOVLW  0A
018E:  MOVWF  2E
018F:  CALL   108
....................     output_high(ACT1); 
0190:  BCF    20.7
0191:  MOVF   20,W
0192:  BSF    03.5
0193:  MOVWF  07
0194:  BCF    03.5
0195:  BSF    07.7
....................     clearDisplay(); 
0196:  CALL   11D
....................      
....................     output_low(ACT2); // horaUnd 
0197:  BCF    20.6
0198:  MOVF   20,W
0199:  BSF    03.5
019A:  MOVWF  07
019B:  BCF    03.5
019C:  BCF    07.6
....................     choose(horaUnd); 
019D:  MOVF   29,W
019E:  MOVWF  2E
019F:  CALL   019
....................     delay_ms(10); 
01A0:  MOVLW  0A
01A1:  MOVWF  2E
01A2:  CALL   108
....................     output_high(ACT2); 
01A3:  BCF    20.6
01A4:  MOVF   20,W
01A5:  BSF    03.5
01A6:  MOVWF  07
01A7:  BCF    03.5
01A8:  BSF    07.6
....................     clearDisplay(); 
01A9:  CALL   11D
....................  
....................     output_low(ACT3); // minDes 
01AA:  BCF    20.5
01AB:  MOVF   20,W
01AC:  BSF    03.5
01AD:  MOVWF  07
01AE:  BCF    03.5
01AF:  BCF    07.5
....................     choose(minDez); 
01B0:  MOVF   2A,W
01B1:  MOVWF  2E
01B2:  CALL   019
....................     delay_ms(10); 
01B3:  MOVLW  0A
01B4:  MOVWF  2E
01B5:  CALL   108
....................     output_high(ACT3); 
01B6:  BCF    20.5
01B7:  MOVF   20,W
01B8:  BSF    03.5
01B9:  MOVWF  07
01BA:  BCF    03.5
01BB:  BSF    07.5
....................     clearDisplay(); 
01BC:  CALL   11D
....................  
....................     output_low(ACT4); // minUnd 
01BD:  BCF    20.4
01BE:  MOVF   20,W
01BF:  BSF    03.5
01C0:  MOVWF  07
01C1:  BCF    03.5
01C2:  BCF    07.4
....................     choose(minUnd); 
01C3:  MOVF   2B,W
01C4:  MOVWF  2E
01C5:  CALL   019
....................     delay_ms(10); 
01C6:  MOVLW  0A
01C7:  MOVWF  2E
01C8:  CALL   108
....................     output_high(ACT4); 
01C9:  BCF    20.4
01CA:  MOVF   20,W
01CB:  BSF    03.5
01CC:  MOVWF  07
01CD:  BCF    03.5
01CE:  BSF    07.4
....................     clearDisplay(); 
01CF:  CALL   11D
....................  
....................     output_low(ACT5); // segDez 
01D0:  BSF    03.5
01D1:  BCF    08.2
01D2:  BCF    03.5
01D3:  BCF    08.2
....................     choose(segDez); 
01D4:  MOVF   2C,W
01D5:  MOVWF  2E
01D6:  CALL   019
....................     delay_ms(10); 
01D7:  MOVLW  0A
01D8:  MOVWF  2E
01D9:  CALL   108
....................     output_high(ACT5); 
01DA:  BSF    03.5
01DB:  BCF    08.2
01DC:  BCF    03.5
01DD:  BSF    08.2
....................     clearDisplay(); 
01DE:  CALL   11D
....................  
....................     output_low(ACT6); // segUnd 
01DF:  BSF    03.5
01E0:  BCF    08.3
01E1:  BCF    03.5
01E2:  BCF    08.3
....................     choose(segUnd); 
01E3:  MOVF   2D,W
01E4:  MOVWF  2E
01E5:  CALL   019
....................     delay_ms(10); 
01E6:  MOVLW  0A
01E7:  MOVWF  2E
01E8:  CALL   108
....................     output_high(ACT6); 
01E9:  BSF    03.5
01EA:  BCF    08.3
01EB:  BCF    03.5
01EC:  BSF    08.3
....................     clearDisplay(); 
01ED:  CALL   11D
01EE:  BCF    0A.3
01EF:  BCF    0A.4
01F0:  GOTO   20A (RETURN)
.................... } 
....................  
....................  
.................... void main() { 
01F1:  MOVF   03,W
01F2:  ANDLW  1F
01F3:  MOVWF  03
01F4:  MOVLW  FF
01F5:  MOVWF  20
01F6:  BSF    03.5
01F7:  BSF    1F.0
01F8:  BSF    1F.1
01F9:  BSF    1F.2
01FA:  BCF    1F.3
01FB:  MOVLW  07
01FC:  MOVWF  1C
01FD:  BCF    03.7
01FE:  BCF    03.5
01FF:  CLRF   21
0200:  CLRF   22
0201:  CLRF   23
0202:  CLRF   24
....................     int hours = 0; 
....................     int minutes = 0; 
....................     int seconds = 0; 
....................     int counter = 0; 
....................      
....................     while(1) { 
....................         // Refresh display continuously (multiplexing) 
....................         displayRefresh(hours, minutes, seconds); 
0203:  MOVF   21,W
0204:  MOVWF  25
0205:  MOVF   22,W
0206:  MOVWF  26
0207:  MOVF   23,W
0208:  MOVWF  27
0209:  GOTO   13A
....................          
....................         counter++; 
020A:  INCF   24,F
....................          
....................         // After 100 refreshes, increment seconds (assuming each refresh takes ~10ms) 
....................         if(counter >= 100) { 
020B:  MOVF   24,W
020C:  SUBLW  63
020D:  BTFSC  03.0
020E:  GOTO   221
....................             counter = 0; 
020F:  CLRF   24
....................             seconds++; 
0210:  INCF   23,F
....................             if(seconds >= 60) { 
0211:  MOVF   23,W
0212:  SUBLW  3B
0213:  BTFSC  03.0
0214:  GOTO   221
....................                 seconds = 0; 
0215:  CLRF   23
....................                 minutes++; 
0216:  INCF   22,F
....................                 if(minutes >= 60) { 
0217:  MOVF   22,W
0218:  SUBLW  3B
0219:  BTFSC  03.0
021A:  GOTO   221
....................                     minutes = 0; 
021B:  CLRF   22
....................                     hours++; 
021C:  INCF   21,F
....................                     if(hours >= 24) { 
021D:  MOVF   21,W
021E:  SUBLW  17
021F:  BTFSS  03.0
....................                         hours = 0; 
0220:  CLRF   21
....................                     } 
....................                 } 
....................             } 
....................         } 
0221:  GOTO   203
....................     } 
.................... } 
0222:  SLEEP

Configuration Fuses:
   Word  1: 2F0A   HS NOWDT NOPUT NOBROWNOUT NOLVP NOCPD NOWRT NODEBUG NOPROTECT
