CCS PCM C Compiler, Version 5.049, 5967               15-Apr-26 14:49

               Filename:   C:\Users\Vicenzo\Desktop\Escola\info Industrial\pic\14-04\precisao.lst

               ROM used:   539 words (7%)
                           Largest free fragment is 2048
               RAM used:   8 (2%) at main() level
                           19 (5%) worst case
               Stack used: 2 locations
               Stack size: 8

*
0000:  MOVLW  01
0001:  MOVWF  0A
0002:  GOTO   1EC
0003:  NOP
.................... #include <16F877A.h> 
.................... //////////// Standard Header file for the PIC16F877A device //////////////// 
.................... /////////////////////////////////////////////////////////////////////////// 
.................... ////        (C) Copyright 1996, 2014 Custom Computer Services          //// 
.................... //// This source code may only be used by licensed users of the CCS C  //// 
.................... //// compiler.  This source code may only be distributed to other      //// 
.................... //// licensed users of the CCS C compiler.  No other use, reproduction //// 
.................... //// or distribution is permitted without written permission.          //// 
.................... //// Derivative programs created using this software in object code    //// 
.................... //// form are not restricted in any way.                               //// 
.................... /////////////////////////////////////////////////////////////////////////// 
.................... #device PIC16F877A 
0004:  MOVF   2C,W
0005:  CLRF   78
0006:  SUBWF  2B,W
0007:  BTFSC  03.0
0008:  GOTO   00C
0009:  MOVF   2B,W
000A:  MOVWF  77
000B:  GOTO   018
000C:  CLRF   77
000D:  MOVLW  08
000E:  MOVWF  2D
000F:  RLF    2B,F
0010:  RLF    77,F
0011:  MOVF   2C,W
0012:  SUBWF  77,W
0013:  BTFSC  03.0
0014:  MOVWF  77
0015:  RLF    78,F
0016:  DECFSZ 2D,F
0017:  GOTO   00F
0018:  RETURN
....................  
.................... #list 
....................  
.................... #device adc=10 
.................... #use delay(crystal=4MHz) 
*
0126:  MOVLW  2B
0127:  MOVWF  04
0128:  BCF    03.7
0129:  MOVF   00,W
012A:  BTFSC  03.2
012B:  GOTO   13A
012C:  MOVLW  01
012D:  MOVWF  78
012E:  CLRF   77
012F:  DECFSZ 77,F
0130:  GOTO   12F
0131:  DECFSZ 78,F
0132:  GOTO   12E
0133:  MOVLW  4A
0134:  MOVWF  77
0135:  DECFSZ 77,F
0136:  GOTO   135
0137:  GOTO   138
0138:  DECFSZ 00,F
0139:  GOTO   12C
013A:  RETURN
.................... #FUSES NOPUT, NOBROWNOUT, NOLVP, HS, NOWDT 
....................  
.................... // Definições dos segmentos (mantidas iguais ao original) 
.................... #define LEDA    PIN_B1 
.................... #define LEDB    PIN_B0 
.................... #define LEDC    PIN_B6 
.................... #define LEDD    PIN_B5 
.................... #define LEDE    PIN_B4 
.................... #define LEDF    PIN_B3 
.................... #define LEDG    PIN_B2 
.................... #define LEDPT   PIN_B7 
....................  
.................... #define ACT1    PIN_C7 
.................... #define ACT2    PIN_C6     
.................... #define ACT3    PIN_C5 
.................... #define ACT4    PIN_C4 
.................... #define ACT5    PIN_D2 
.................... #define ACT6    PIN_D3 
....................  
.................... // Pino de teste para o osciloscópio 
.................... #define TEST_PIN  PIN_D0 
....................  
.................... void clearDisplay() { 
....................     output_high(LEDA); output_high(LEDB); output_high(LEDC); 
*
0019:  BSF    03.5
001A:  BCF    06.1
001B:  BCF    03.5
001C:  BSF    06.1
001D:  BSF    03.5
001E:  BCF    06.0
001F:  BCF    03.5
0020:  BSF    06.0
0021:  BSF    03.5
0022:  BCF    06.6
0023:  BCF    03.5
0024:  BSF    06.6
....................     output_high(LEDD); output_high(LEDE); output_high(LEDF); 
0025:  BSF    03.5
0026:  BCF    06.5
0027:  BCF    03.5
0028:  BSF    06.5
0029:  BSF    03.5
002A:  BCF    06.4
002B:  BCF    03.5
002C:  BSF    06.4
002D:  BSF    03.5
002E:  BCF    06.3
002F:  BCF    03.5
0030:  BSF    06.3
....................     output_high(LEDG); 
0031:  BSF    03.5
0032:  BCF    06.2
0033:  BCF    03.5
0034:  BSF    06.2
0035:  RETURN
.................... } 
....................  
.................... void display1() { output_low(LEDB); output_low(LEDC); } 
*
006F:  BSF    03.5
0070:  BCF    06.0
0071:  BCF    03.5
0072:  BCF    06.0
0073:  BSF    03.5
0074:  BCF    06.6
0075:  BCF    03.5
0076:  BCF    06.6
.................... void display2() { output_low(LEDD); output_low(LEDE); output_low(LEDG); output_low(LEDB); output_low(LEDA); } 
*
0078:  BSF    03.5
0079:  BCF    06.5
007A:  BCF    03.5
007B:  BCF    06.5
007C:  BSF    03.5
007D:  BCF    06.4
007E:  BCF    03.5
007F:  BCF    06.4
0080:  BSF    03.5
0081:  BCF    06.2
0082:  BCF    03.5
0083:  BCF    06.2
0084:  BSF    03.5
0085:  BCF    06.0
0086:  BCF    03.5
0087:  BCF    06.0
0088:  BSF    03.5
0089:  BCF    06.1
008A:  BCF    03.5
008B:  BCF    06.1
.................... void display3() { output_low(LEDA); output_low(LEDB); output_low(LEDG); output_low(LEDC); output_low(LEDD); } 
*
008D:  BSF    03.5
008E:  BCF    06.1
008F:  BCF    03.5
0090:  BCF    06.1
0091:  BSF    03.5
0092:  BCF    06.0
0093:  BCF    03.5
0094:  BCF    06.0
0095:  BSF    03.5
0096:  BCF    06.2
0097:  BCF    03.5
0098:  BCF    06.2
0099:  BSF    03.5
009A:  BCF    06.6
009B:  BCF    03.5
009C:  BCF    06.6
009D:  BSF    03.5
009E:  BCF    06.5
009F:  BCF    03.5
00A0:  BCF    06.5
.................... void display4() { output_low(LEDC); output_low(LEDG); output_low(LEDF); output_low(LEDB); } 
*
00A2:  BSF    03.5
00A3:  BCF    06.6
00A4:  BCF    03.5
00A5:  BCF    06.6
00A6:  BSF    03.5
00A7:  BCF    06.2
00A8:  BCF    03.5
00A9:  BCF    06.2
00AA:  BSF    03.5
00AB:  BCF    06.3
00AC:  BCF    03.5
00AD:  BCF    06.3
00AE:  BSF    03.5
00AF:  BCF    06.0
00B0:  BCF    03.5
00B1:  BCF    06.0
.................... void display5() { output_low(LEDA); output_low(LEDF); output_low(LEDG); output_low(LEDC); output_low(LEDD); } 
*
00B3:  BSF    03.5
00B4:  BCF    06.1
00B5:  BCF    03.5
00B6:  BCF    06.1
00B7:  BSF    03.5
00B8:  BCF    06.3
00B9:  BCF    03.5
00BA:  BCF    06.3
00BB:  BSF    03.5
00BC:  BCF    06.2
00BD:  BCF    03.5
00BE:  BCF    06.2
00BF:  BSF    03.5
00C0:  BCF    06.6
00C1:  BCF    03.5
00C2:  BCF    06.6
00C3:  BSF    03.5
00C4:  BCF    06.5
00C5:  BCF    03.5
00C6:  BCF    06.5
.................... void display6() { output_low(LEDA); output_low(LEDF); output_low(LEDG); output_low(LEDC); output_low(LEDD); output_low(LEDE); } 
*
00C8:  BSF    03.5
00C9:  BCF    06.1
00CA:  BCF    03.5
00CB:  BCF    06.1
00CC:  BSF    03.5
00CD:  BCF    06.3
00CE:  BCF    03.5
00CF:  BCF    06.3
00D0:  BSF    03.5
00D1:  BCF    06.2
00D2:  BCF    03.5
00D3:  BCF    06.2
00D4:  BSF    03.5
00D5:  BCF    06.6
00D6:  BCF    03.5
00D7:  BCF    06.6
00D8:  BSF    03.5
00D9:  BCF    06.5
00DA:  BCF    03.5
00DB:  BCF    06.5
00DC:  BSF    03.5
00DD:  BCF    06.4
00DE:  BCF    03.5
00DF:  BCF    06.4
.................... void display7() { output_low(LEDA); output_low(LEDB); output_low(LEDC); } 
*
00E1:  BSF    03.5
00E2:  BCF    06.1
00E3:  BCF    03.5
00E4:  BCF    06.1
00E5:  BSF    03.5
00E6:  BCF    06.0
00E7:  BCF    03.5
00E8:  BCF    06.0
00E9:  BSF    03.5
00EA:  BCF    06.6
00EB:  BCF    03.5
00EC:  BCF    06.6
.................... void display8() { output_low(LEDA); output_low(LEDF); output_low(LEDG); output_low(LEDC); output_low(LEDD); output_low(LEDE); output_low(LEDB); } 
*
00EE:  BSF    03.5
00EF:  BCF    06.1
00F0:  BCF    03.5
00F1:  BCF    06.1
00F2:  BSF    03.5
00F3:  BCF    06.3
00F4:  BCF    03.5
00F5:  BCF    06.3
00F6:  BSF    03.5
00F7:  BCF    06.2
00F8:  BCF    03.5
00F9:  BCF    06.2
00FA:  BSF    03.5
00FB:  BCF    06.6
00FC:  BCF    03.5
00FD:  BCF    06.6
00FE:  BSF    03.5
00FF:  BCF    06.5
0100:  BCF    03.5
0101:  BCF    06.5
0102:  BSF    03.5
0103:  BCF    06.4
0104:  BCF    03.5
0105:  BCF    06.4
0106:  BSF    03.5
0107:  BCF    06.0
0108:  BCF    03.5
0109:  BCF    06.0
.................... void display9() { output_low(LEDA); output_low(LEDF); output_low(LEDG); output_low(LEDC); output_low(LEDD); output_low(LEDB); } 
*
010B:  BSF    03.5
010C:  BCF    06.1
010D:  BCF    03.5
010E:  BCF    06.1
010F:  BSF    03.5
0110:  BCF    06.3
0111:  BCF    03.5
0112:  BCF    06.3
0113:  BSF    03.5
0114:  BCF    06.2
0115:  BCF    03.5
0116:  BCF    06.2
0117:  BSF    03.5
0118:  BCF    06.6
0119:  BCF    03.5
011A:  BCF    06.6
011B:  BSF    03.5
011C:  BCF    06.5
011D:  BCF    03.5
011E:  BCF    06.5
011F:  BSF    03.5
0120:  BCF    06.0
0121:  BCF    03.5
0122:  BCF    06.0
.................... void display0() { output_low(LEDF); output_low(LEDE); output_low(LEDD); output_low(LEDC); output_low(LEDB); output_low(LEDA); } 
*
0056:  BSF    03.5
0057:  BCF    06.3
0058:  BCF    03.5
0059:  BCF    06.3
005A:  BSF    03.5
005B:  BCF    06.4
005C:  BCF    03.5
005D:  BCF    06.4
005E:  BSF    03.5
005F:  BCF    06.5
0060:  BCF    03.5
0061:  BCF    06.5
0062:  BSF    03.5
0063:  BCF    06.6
0064:  BCF    03.5
0065:  BCF    06.6
0066:  BSF    03.5
0067:  BCF    06.0
0068:  BCF    03.5
0069:  BCF    06.0
006A:  BSF    03.5
006B:  BCF    06.1
006C:  BCF    03.5
006D:  BCF    06.1
....................  
.................... void choose(int num) { 
....................     clearDisplay(); 
*
0036:  CALL   019
....................     switch (num) { 
0037:  MOVF   2B,W
0038:  BTFSC  03.2
0039:  GOTO   056
003A:  XORLW  01
003B:  BTFSC  03.2
003C:  GOTO   06F
003D:  XORLW  03
003E:  BTFSC  03.2
003F:  GOTO   078
0040:  XORLW  01
0041:  BTFSC  03.2
0042:  GOTO   08D
0043:  XORLW  07
0044:  BTFSC  03.2
0045:  GOTO   0A2
0046:  XORLW  01
0047:  BTFSC  03.2
0048:  GOTO   0B3
0049:  XORLW  03
004A:  BTFSC  03.2
004B:  GOTO   0C8
004C:  XORLW  01
004D:  BTFSC  03.2
004E:  GOTO   0E1
004F:  XORLW  0F
0050:  BTFSC  03.2
0051:  GOTO   0EE
0052:  XORLW  01
0053:  BTFSC  03.2
0054:  GOTO   10B
0055:  GOTO   124
....................         case 0: display0(); break; 
*
006E:  GOTO   125
....................         case 1: display1(); break; 
*
0077:  GOTO   125
....................         case 2: display2(); break; 
*
008C:  GOTO   125
....................         case 3: display3(); break; 
*
00A1:  GOTO   125
....................         case 4: display4(); break; 
*
00B2:  GOTO   125
....................         case 5: display5(); break; 
*
00C7:  GOTO   125
....................         case 6: display6(); break; 
*
00E0:  GOTO   125
....................         case 7: display7(); break; 
*
00ED:  GOTO   125
....................         case 8: display8(); break; 
*
010A:  GOTO   125
....................         case 9: display9(); break; 
*
0123:  GOTO   125
....................         default: clearDisplay(); break; 
0124:  CALL   019
....................     } 
0125:  RETURN
.................... } 
....................  
.................... void displayRefresh(int h, int m, int s) { 
....................     output_high(ACT1); output_high(ACT2); output_high(ACT3); 
*
013B:  BCF    20.7
013C:  MOVF   20,W
013D:  BSF    03.5
013E:  MOVWF  07
013F:  BCF    03.5
0140:  BSF    07.7
0141:  BCF    20.6
0142:  MOVF   20,W
0143:  BSF    03.5
0144:  MOVWF  07
0145:  BCF    03.5
0146:  BSF    07.6
0147:  BCF    20.5
0148:  MOVF   20,W
0149:  BSF    03.5
014A:  MOVWF  07
014B:  BCF    03.5
014C:  BSF    07.5
....................     output_high(ACT4); output_high(ACT5); output_high(ACT6); 
014D:  BCF    20.4
014E:  MOVF   20,W
014F:  BSF    03.5
0150:  MOVWF  07
0151:  BCF    03.5
0152:  BSF    07.4
0153:  BSF    03.5
0154:  BCF    08.2
0155:  BCF    03.5
0156:  BSF    08.2
0157:  BSF    03.5
0158:  BCF    08.3
0159:  BCF    03.5
015A:  BSF    08.3
....................  
....................     int horaDez = h / 10, horaUnd = h % 10; 
....................     int minDez  = m / 10, minUnd  = m % 10; 
....................     int segDez  = s / 10, segUnd  = s % 10; 
015B:  MOVF   22,W
015C:  MOVWF  2B
015D:  MOVLW  0A
015E:  MOVWF  2C
015F:  CALL   004
0160:  MOVF   78,W
0161:  MOVWF  25
0162:  MOVF   22,W
0163:  MOVWF  2B
0164:  MOVLW  0A
0165:  MOVWF  2C
0166:  CALL   004
0167:  MOVF   77,W
0168:  MOVWF  26
0169:  MOVF   23,W
016A:  MOVWF  2B
016B:  MOVLW  0A
016C:  MOVWF  2C
016D:  CALL   004
016E:  MOVF   78,W
016F:  MOVWF  27
0170:  MOVF   23,W
0171:  MOVWF  2B
0172:  MOVLW  0A
0173:  MOVWF  2C
0174:  CALL   004
0175:  MOVF   77,W
0176:  MOVWF  28
0177:  MOVF   24,W
0178:  MOVWF  2B
0179:  MOVLW  0A
017A:  MOVWF  2C
017B:  CALL   004
017C:  MOVF   78,W
017D:  MOVWF  29
017E:  MOVF   24,W
017F:  MOVWF  2B
0180:  MOVLW  0A
0181:  MOVWF  2C
0182:  CALL   004
0183:  MOVF   77,W
0184:  MOVWF  2A
....................  
....................     output_low(ACT1); choose(horaDez); delay_ms(5); output_high(ACT1); 
0185:  BCF    20.7
0186:  MOVF   20,W
0187:  BSF    03.5
0188:  MOVWF  07
0189:  BCF    03.5
018A:  BCF    07.7
018B:  MOVF   25,W
018C:  MOVWF  2B
018D:  CALL   036
018E:  MOVLW  05
018F:  MOVWF  2B
0190:  CALL   126
0191:  BCF    20.7
0192:  MOVF   20,W
0193:  BSF    03.5
0194:  MOVWF  07
0195:  BCF    03.5
0196:  BSF    07.7
....................     output_low(ACT2); choose(horaUnd); delay_ms(5); output_high(ACT2); 
0197:  BCF    20.6
0198:  MOVF   20,W
0199:  BSF    03.5
019A:  MOVWF  07
019B:  BCF    03.5
019C:  BCF    07.6
019D:  MOVF   26,W
019E:  MOVWF  2B
019F:  CALL   036
01A0:  MOVLW  05
01A1:  MOVWF  2B
01A2:  CALL   126
01A3:  BCF    20.6
01A4:  MOVF   20,W
01A5:  BSF    03.5
01A6:  MOVWF  07
01A7:  BCF    03.5
01A8:  BSF    07.6
....................     output_low(ACT3); choose(minDez);  delay_ms(5); output_high(ACT3); 
01A9:  BCF    20.5
01AA:  MOVF   20,W
01AB:  BSF    03.5
01AC:  MOVWF  07
01AD:  BCF    03.5
01AE:  BCF    07.5
01AF:  MOVF   27,W
01B0:  MOVWF  2B
01B1:  CALL   036
01B2:  MOVLW  05
01B3:  MOVWF  2B
01B4:  CALL   126
01B5:  BCF    20.5
01B6:  MOVF   20,W
01B7:  BSF    03.5
01B8:  MOVWF  07
01B9:  BCF    03.5
01BA:  BSF    07.5
....................     output_low(ACT4); choose(minUnd);  delay_ms(5); output_high(ACT4); 
01BB:  BCF    20.4
01BC:  MOVF   20,W
01BD:  BSF    03.5
01BE:  MOVWF  07
01BF:  BCF    03.5
01C0:  BCF    07.4
01C1:  MOVF   28,W
01C2:  MOVWF  2B
01C3:  CALL   036
01C4:  MOVLW  05
01C5:  MOVWF  2B
01C6:  CALL   126
01C7:  BCF    20.4
01C8:  MOVF   20,W
01C9:  BSF    03.5
01CA:  MOVWF  07
01CB:  BCF    03.5
01CC:  BSF    07.4
....................     output_low(ACT5); choose(segDez);  delay_ms(5); output_high(ACT5); 
01CD:  BSF    03.5
01CE:  BCF    08.2
01CF:  BCF    03.5
01D0:  BCF    08.2
01D1:  MOVF   29,W
01D2:  MOVWF  2B
01D3:  CALL   036
01D4:  MOVLW  05
01D5:  MOVWF  2B
01D6:  CALL   126
01D7:  BSF    03.5
01D8:  BCF    08.2
01D9:  BCF    03.5
01DA:  BSF    08.2
....................     output_low(ACT6); choose(segUnd);  delay_ms(5); output_high(ACT6); 
01DB:  BSF    03.5
01DC:  BCF    08.3
01DD:  BCF    03.5
01DE:  BCF    08.3
01DF:  MOVF   2A,W
01E0:  MOVWF  2B
01E1:  CALL   036
01E2:  MOVLW  05
01E3:  MOVWF  2B
01E4:  CALL   126
01E5:  BSF    03.5
01E6:  BCF    08.3
01E7:  BCF    03.5
01E8:  BSF    08.3
01E9:  BCF    0A.3
01EA:  BCF    0A.4
01EB:  GOTO   20C (RETURN)
.................... } 
....................  
.................... void main() { 
01EC:  MOVF   03,W
01ED:  ANDLW  1F
01EE:  MOVWF  03
01EF:  MOVLW  FF
01F0:  MOVWF  20
01F1:  BSF    03.5
01F2:  BSF    1F.0
01F3:  BSF    1F.1
01F4:  BSF    1F.2
01F5:  BCF    1F.3
01F6:  MOVLW  07
01F7:  MOVWF  1C
01F8:  BCF    03.7
....................     int i; 
....................     output_low(TEST_PIN); 
01F9:  BCF    08.0
01FA:  BCF    03.5
01FB:  BCF    08.0
....................      
....................     while(TRUE) { 
....................         output_high(TEST_PIN); 
01FC:  BSF    03.5
01FD:  BCF    08.0
01FE:  BCF    03.5
01FF:  BSF    08.0
....................         for(i = 0; i < 100; i++) {   // 100 iterações 
0200:  CLRF   21
0201:  MOVF   21,W
0202:  SUBLW  63
0203:  BTFSS  03.0
0204:  GOTO   20E
....................             displayRefresh(12, 34, 56); 
0205:  MOVLW  0C
0206:  MOVWF  22
0207:  MOVLW  22
0208:  MOVWF  23
0209:  MOVLW  38
020A:  MOVWF  24
020B:  GOTO   13B
020C:  INCF   21,F
020D:  GOTO   201
....................         } 
....................         output_low(TEST_PIN); 
020E:  BSF    03.5
020F:  BCF    08.0
0210:  BCF    03.5
0211:  BCF    08.0
....................         delay_ms(1000); 
0212:  MOVLW  04
0213:  MOVWF  22
0214:  MOVLW  FA
0215:  MOVWF  2B
0216:  CALL   126
0217:  DECFSZ 22,F
0218:  GOTO   214
0219:  GOTO   1FC
....................     }  
.................... } 
021A:  SLEEP

Configuration Fuses:
   Word  1: 2F0A   HS NOWDT NOPUT NOBROWNOUT NOLVP NOCPD NOWRT NODEBUG NOPROTECT
